target datalayout = "e-m:e-p270:32:32-p271:32:32-p272:64:64-i64:64-i128:128-f80:128-n8:16:32:64-S128"
target triple = "x86_64-pc-linux-gnu"

%struct.ipmi_netfn_root = type { ptr, ptr, i32 }

@fru_langcode_is_english = internal global i8 1, align 1
@ipmi_cmd_tab = internal global [32 x %struct.ipmi_netfn_root] zeroinitializer, align 16
@selected_oem = internal global i32 0, align 4
@.str.50 = private unnamed_addr constant [5 x i8] c"IPMB\00", align 1
@proto_register_ipmi.ett = internal global [6 x ptr] [ptr @ett_ipmi, ptr @ett_header, ptr @ett_header_byte_1, ptr @ett_header_byte_4, ptr @ett_data, ptr @ett_typelen], align 16
@.str.91 = private unnamed_addr constant [5 x i8] c"ipmb\00", align 1
@.str.100 = private unnamed_addr constant [42 x i8] c"Intelligent Platform Management Interface\00", align 1
@.str.101 = private unnamed_addr constant [5 x i8] c"IPMI\00", align 1
@.str.102 = private unnamed_addr constant [5 x i8] c"ipmi\00", align 1
@proto_ipmi = hidden global i32 0, align 4
@.str.103 = private unnamed_addr constant [36 x i8] c"Intelligent Platform Management Bus\00", align 1
@proto_ipmb = internal global i32 0, align 4
@.str.104 = private unnamed_addr constant [36 x i8] c"Keyboard Controller Style Interface\00", align 1
@.str.105 = private unnamed_addr constant [4 x i8] c"KCS\00", align 1
@.str.106 = private unnamed_addr constant [4 x i8] c"kcs\00", align 1
@proto_kcs = internal global i32 0, align 4
@.str.107 = private unnamed_addr constant [31 x i8] c"Serial Terminal Mode Interface\00", align 1
@.str.108 = private unnamed_addr constant [6 x i8] c"TMode\00", align 1
@.str.109 = private unnamed_addr constant [6 x i8] c"tmode\00", align 1
@proto_tmode = internal global i32 0, align 4
@.str.110 = private unnamed_addr constant [8 x i8] c"Chassis\00", align 1
@.str.111 = private unnamed_addr constant [7 x i8] c"Bridge\00", align 1
@.str.112 = private unnamed_addr constant [13 x i8] c"Sensor/Event\00", align 1
@.str.113 = private unnamed_addr constant [12 x i8] c"Application\00", align 1
@.str.114 = private unnamed_addr constant [16 x i8] c"Firmware Update\00", align 1
@.str.115 = private unnamed_addr constant [8 x i8] c"Storage\00", align 1
@.str.116 = private unnamed_addr constant [10 x i8] c"Transport\00", align 1
@.str.117 = private unnamed_addr constant [6 x i8] c"Group\00", align 1
@.str.118 = private unnamed_addr constant [10 x i8] c"OEM/Group\00", align 1
@.str.119 = private unnamed_addr constant [4 x i8] c"OEM\00", align 1
@.str.120 = private unnamed_addr constant [9 x i8] c"ipmi.i2c\00", align 1
@ipmi_i2c_handle = internal global ptr null, align 8
@.str.121 = private unnamed_addr constant [21 x i8] c"dissect_bus_commands\00", align 1
@.str.122 = private unnamed_addr constant [21 x i8] c"Dissect bus commands\00", align 1
@.str.123 = private unnamed_addr constant [22 x i8] c"Dissect IPMB commands\00", align 1
@dissect_bus_commands = internal global i8 0, align 1
@.str.124 = private unnamed_addr constant [24 x i8] c"fru_langcode_is_english\00", align 1
@.str.125 = private unnamed_addr constant [29 x i8] c"FRU Language Code is English\00", align 1
@.str.126 = private unnamed_addr constant [69 x i8] c"FRU Language Code is English; strings are ASCII+LATIN1 (vs. Unicode)\00", align 1
@.str.127 = private unnamed_addr constant [19 x i8] c"response_after_req\00", align 1
@.str.128 = private unnamed_addr constant [34 x i8] c"Maximum delay of response message\00", align 1
@.str.129 = private unnamed_addr constant [69 x i8] c"Do not search for responses coming after this timeout (milliseconds)\00", align 1
@response_after_req = internal global i32 5000, align 4
@.str.130 = private unnamed_addr constant [20 x i8] c"response_before_req\00", align 1
@.str.131 = private unnamed_addr constant [26 x i8] c"Response ahead of request\00", align 1
@.str.132 = private unnamed_addr constant [51 x i8] c"Allow for responses before requests (milliseconds)\00", align 1
@response_before_req = internal global i32 0, align 4
@.str.133 = private unnamed_addr constant [7 x i8] c"msgfmt\00", align 1
@.str.134 = private unnamed_addr constant [28 x i8] c"Format of embedded messages\00", align 1
@.str.135 = private unnamed_addr constant [58 x i8] c"Format of messages embedded into Send/Get/Forward Message\00", align 1
@message_format = internal global i32 3, align 4
@.str.136 = private unnamed_addr constant [13 x i8] c"selected_oem\00", align 1
@.str.137 = private unnamed_addr constant [23 x i8] c"OEM commands parsed as\00", align 1
@.str.138 = private unnamed_addr constant [72 x i8] c"Selects which OEM format is used for commands that IPMI does not define\00", align 1

; Function Attrs: nounwind null_pointer_is_valid sspstrong uwtable
define internal void @ipmi_netfn_setdesc(i32 noundef %0, ptr noundef %1, i32 noundef %2) #4 {
  %4 = alloca i32, align 4
  %5 = alloca ptr, align 8
  %6 = alloca i32, align 4
  %7 = alloca ptr, align 8
  store i32 %0, ptr %4, align 4
  store ptr %1, ptr %5, align 8
  store i32 %2, ptr %6, align 4
  call void @llvm.lifetime.start.p0(i64 8, ptr %7) #10
  %8 = load i32, ptr %4, align 4
  %9 = lshr i32 %8, 1
  %10 = zext i32 %9 to i64
  %11 = getelementptr [32 x %struct.ipmi_netfn_root], ptr @ipmi_cmd_tab, i64 0, i64 %10
  store ptr %11, ptr %7, align 8
  %12 = load ptr, ptr %5, align 8
  %13 = load ptr, ptr %7, align 8
  %14 = getelementptr inbounds nuw %struct.ipmi_netfn_root, ptr %13, i32 0, i32 1
  store ptr %12, ptr %14, align 8
  %15 = load i32, ptr %6, align 4
  %16 = load ptr, ptr %7, align 8
  %17 = getelementptr inbounds nuw %struct.ipmi_netfn_root, ptr %16, i32 0, i32 2
  store i32 %15, ptr %17, align 8
  call void @llvm.lifetime.end.p0(i64 8, ptr %7) #10
  ret void
}

; Function Attrs: null_pointer_is_valid sspstrong uwtable
define hidden void @proto_register_ipmi() #0 {
  %1 = alloca ptr, align 8
  %2 = alloca ptr, align 8
  %3 = alloca i32, align 4
  call void @llvm.lifetime.start.p0(i64 8, ptr %1) #10
  call void @llvm.lifetime.start.p0(i64 8, ptr %2) #10
  call void @llvm.lifetime.start.p0(i64 4, ptr %3) #10
  %4 = call i32 @proto_register_protocol(ptr noundef @.str.100, ptr noundef @.str.101, ptr noundef @.str.102)
  store i32 %4, ptr @proto_ipmi, align 4
  %5 = call i32 @proto_register_protocol(ptr noundef @.str.103, ptr noundef @.str.50, ptr noundef @.str.91)
  store i32 %5, ptr @proto_ipmb, align 4
  %6 = call i32 @proto_register_protocol(ptr noundef @.str.104, ptr noundef @.str.105, ptr noundef @.str.106)
  store i32 %6, ptr @proto_kcs, align 4
  %7 = call i32 @proto_register_protocol(ptr noundef @.str.107, ptr noundef @.str.108, ptr noundef @.str.109)
  store i32 %7, ptr @proto_tmode, align 4
  %8 = load i32, ptr @proto_ipmi, align 4
  call void @proto_register_field_array(i32 noundef %8, ptr noundef @proto_register_ipmi.hf, i32 noundef 17)
  call void @proto_register_subtree_array(ptr noundef @proto_register_ipmi.ett, i32 noundef 6)
  %9 = load i32, ptr @proto_ipmi, align 4
  %10 = call ptr @expert_register_protocol(i32 noundef %9)
  store ptr %10, ptr %2, align 8
  %11 = load ptr, ptr %2, align 8
  call void @expert_register_field_array(ptr noundef %11, ptr noundef @proto_register_ipmi.ei, i32 noundef 1)
  call void @ipmi_netfn_setdesc(i32 noundef 0, ptr noundef @.str.110, i32 noundef 0)
  call void @ipmi_netfn_setdesc(i32 noundef 2, ptr noundef @.str.111, i32 noundef 0)
  call void @ipmi_netfn_setdesc(i32 noundef 4, ptr noundef @.str.112, i32 noundef 0)
  call void @ipmi_netfn_setdesc(i32 noundef 6, ptr noundef @.str.113, i32 noundef 0)
  call void @ipmi_netfn_setdesc(i32 noundef 8, ptr noundef @.str.114, i32 noundef 0)
  call void @ipmi_netfn_setdesc(i32 noundef 10, ptr noundef @.str.115, i32 noundef 0)
  call void @ipmi_netfn_setdesc(i32 noundef 12, ptr noundef @.str.116, i32 noundef 0)
  call void @ipmi_netfn_setdesc(i32 noundef 44, ptr noundef @.str.117, i32 noundef 1)
  call void @ipmi_netfn_setdesc(i32 noundef 46, ptr noundef @.str.118, i32 noundef 3)
  store i32 48, ptr %3, align 4
  br label %12

12:                                               ; preds = %17, %0
  %13 = load i32, ptr %3, align 4
  %14 = icmp ult i32 %13, 64
  br i1 %14, label %15, label %20

15:                                               ; preds = %12
  %16 = load i32, ptr %3, align 4
  call void @ipmi_netfn_setdesc(i32 noundef %16, ptr noundef @.str.119, i32 noundef 0)
  br label %17

17:                                               ; preds = %15
  %18 = load i32, ptr %3, align 4
  %19 = add i32 %18, 2
  store i32 %19, ptr %3, align 4
  br label %12, !llvm.loop !12

20:                                               ; preds = %12
  %21 = load i32, ptr @proto_ipmi, align 4
  %22 = call ptr @register_dissector(ptr noundef @.str.102, ptr noundef @dissect_ipmi, i32 noundef %21)
  %23 = load i32, ptr @proto_ipmi, align 4
  %24 = call ptr @register_dissector(ptr noundef @.str.120, ptr noundef @dissect_i2c_ipmi, i32 noundef %23)
  store ptr %24, ptr @ipmi_i2c_handle, align 8
  %25 = load i32, ptr @proto_ipmb, align 4
  %26 = call ptr @register_dissector(ptr noundef @.str.91, ptr noundef @dissect_ipmi, i32 noundef %25)
  %27 = load i32, ptr @proto_kcs, align 4
  %28 = call ptr @register_dissector(ptr noundef @.str.106, ptr noundef @dissect_kcs, i32 noundef %27)
  %29 = load i32, ptr @proto_tmode, align 4
  %30 = call ptr @register_dissector(ptr noundef @.str.109, ptr noundef @dissect_tmode, i32 noundef %29)
  %31 = load i32, ptr @proto_ipmi, align 4
  %32 = call ptr @prefs_register_protocol(i32 noundef %31, ptr noundef null)
  store ptr %32, ptr %1, align 8
  %33 = load ptr, ptr %1, align 8
  call void @prefs_register_bool_preference(ptr noundef %33, ptr noundef @.str.121, ptr noundef @.str.122, ptr noundef @.str.123, ptr noundef @dissect_bus_commands)
  %34 = load ptr, ptr %1, align 8
  call void @prefs_register_bool_preference(ptr noundef %34, ptr noundef @.str.124, ptr noundef @.str.125, ptr noundef @.str.126, ptr noundef @fru_langcode_is_english)
  %35 = load ptr, ptr %1, align 8
  call void @prefs_register_uint_preference(ptr noundef %35, ptr noundef @.str.127, ptr noundef @.str.128, ptr noundef @.str.129, i32 noundef 10, ptr noundef @response_after_req)
  %36 = load ptr, ptr %1, align 8
  call void @prefs_register_uint_preference(ptr noundef %36, ptr noundef @.str.130, ptr noundef @.str.131, ptr noundef @.str.132, i32 noundef 10, ptr noundef @response_before_req)
  %37 = load ptr, ptr %1, align 8
  call void @prefs_register_enum_preference(ptr noundef %37, ptr noundef @.str.133, ptr noundef @.str.134, ptr noundef @.str.135, ptr noundef @message_format, ptr noundef @proto_register_ipmi.msgfmt_vals, i1 noundef zeroext false)
  %38 = load ptr, ptr %1, align 8
  call void @prefs_register_enum_preference(ptr noundef %38, ptr noundef @.str.136, ptr noundef @.str.137, ptr noundef @.str.138, ptr noundef @selected_oem, ptr noundef @proto_register_ipmi.oemsel_vals, i1 noundef zeroext false)
  call void @llvm.lifetime.end.p0(i64 4, ptr %3) #10
  call void @llvm.lifetime.end.p0(i64 8, ptr %2) #10
  call void @llvm.lifetime.end.p0(i64 8, ptr %1) #10
  ret void
}