; Function Attrs: null_pointer_is_valid sspstrong uwtable
define hidden void @proto_register_ipmi() local_unnamed_addr #0 {
  %1 = tail call i32 @proto_register_protocol(ptr noundef nonnull @.str.100, ptr noundef nonnull @.str.101, ptr noundef nonnull @.str.102)
  store i32 %1, ptr @proto_ipmi, align 4
  %2 = tail call i32 @proto_register_protocol(ptr noundef nonnull @.str.103, ptr noundef nonnull @.str.50, ptr noundef nonnull @.str.91)
  store i32 %2, ptr @proto_ipmb, align 4
  %3 = tail call i32 @proto_register_protocol(ptr noundef nonnull @.str.104, ptr noundef nonnull @.str.105, ptr noundef nonnull @.str.106)
  store i32 %3, ptr @proto_kcs, align 4
  %4 = tail call i32 @proto_register_protocol(ptr noundef nonnull @.str.107, ptr noundef nonnull @.str.108, ptr noundef nonnull @.str.109)
  store i32 %4, ptr @proto_tmode, align 4
  %5 = load i32, ptr @proto_ipmi, align 4
  tail call void @proto_register_field_array(i32 noundef %5, ptr noundef nonnull @proto_register_ipmi.hf, i32 noundef 17)
  tail call void @proto_register_subtree_array(ptr noundef nonnull @proto_register_ipmi.ett, i32 noundef 6)
  %6 = load i32, ptr @proto_ipmi, align 4
  %7 = tail call ptr @expert_register_protocol(i32 noundef %6)
  tail call void @expert_register_field_array(ptr noundef %7, ptr noundef nonnull @proto_register_ipmi.ei, i32 noundef 1)
  store ptr @.str.110, ptr getelementptr inbounds nuw (i8, ptr @ipmi_cmd_tab, i64 8), align 8
  store i32 0, ptr getelementptr inbounds nuw (i8, ptr @ipmi_cmd_tab, i64 16), align 16
  store ptr @.str.111, ptr getelementptr inbounds nuw (i8, ptr @ipmi_cmd_tab, i64 32), align 16
  store i32 0, ptr getelementptr inbounds nuw (i8, ptr @ipmi_cmd_tab, i64 40), align 8
  store ptr @.str.112, ptr getelementptr inbounds nuw (i8, ptr @ipmi_cmd_tab, i64 56), align 8
  store i32 0, ptr getelementptr inbounds nuw (i8, ptr @ipmi_cmd_tab, i64 64), align 16
  store ptr @.str.113, ptr getelementptr inbounds nuw (i8, ptr @ipmi_cmd_tab, i64 80), align 16
  store i32 0, ptr getelementptr inbounds nuw (i8, ptr @ipmi_cmd_tab, i64 88), align 8
  store ptr @.str.114, ptr getelementptr inbounds nuw (i8, ptr @ipmi_cmd_tab, i64 104), align 8
  store i32 0, ptr getelementptr inbounds nuw (i8, ptr @ipmi_cmd_tab, i64 112), align 16
  store ptr @.str.115, ptr getelementptr inbounds nuw (i8, ptr @ipmi_cmd_tab, i64 128), align 16
  store i32 0, ptr getelementptr inbounds nuw (i8, ptr @ipmi_cmd_tab, i64 136), align 8
  store ptr @.str.116, ptr getelementptr inbounds nuw (i8, ptr @ipmi_cmd_tab, i64 152), align 8
  store i32 0, ptr getelementptr inbounds nuw (i8, ptr @ipmi_cmd_tab, i64 160), align 16
  store ptr @.str.117, ptr getelementptr inbounds nuw (i8, ptr @ipmi_cmd_tab, i64 536), align 8
  store i32 1, ptr getelementptr inbounds nuw (i8, ptr @ipmi_cmd_tab, i64 544), align 16
  store ptr @.str.118, ptr getelementptr inbounds nuw (i8, ptr @ipmi_cmd_tab, i64 560), align 16
  store i32 3, ptr getelementptr inbounds nuw (i8, ptr @ipmi_cmd_tab, i64 568), align 8
  br label %8

8:                                                ; preds = %0, %8
  %indvars.iv = phi i64 [ 48, %0 ], [ %indvars.iv.next, %8 ]
  %9 = lshr exact i64 %indvars.iv, 1
  %10 = getelementptr [32 x %struct.ipmi_netfn_root], ptr @ipmi_cmd_tab, i64 0, i64 %9
  %11 = getelementptr inbounds nuw i8, ptr %10, i64 8
  store ptr @.str.119, ptr %11, align 8
  %12 = getelementptr inbounds nuw i8, ptr %10, i64 16
  store i32 0, ptr %12, align 8
  %indvars.iv.next = add nuw nsw i64 %indvars.iv, 2
  %13 = icmp samesign ult i64 %indvars.iv, 62
  br i1 %13, label %8, label %14, !llvm.loop !14

14:                                               ; preds = %8
  %15 = load i32, ptr @proto_ipmi, align 4
  %16 = tail call ptr @register_dissector(ptr noundef nonnull @.str.102, ptr noundef nonnull @dissect_ipmi, i32 noundef %15)
  %17 = load i32, ptr @proto_ipmi, align 4
  %18 = tail call ptr @register_dissector(ptr noundef nonnull @.str.120, ptr noundef nonnull @dissect_i2c_ipmi, i32 noundef %17)
  store ptr %18, ptr @ipmi_i2c_handle, align 8
  %19 = load i32, ptr @proto_ipmb, align 4
  %20 = tail call ptr @register_dissector(ptr noundef nonnull @.str.91, ptr noundef nonnull @dissect_ipmi, i32 noundef %19)
  %21 = load i32, ptr @proto_kcs, align 4
  %22 = tail call ptr @register_dissector(ptr noundef nonnull @.str.106, ptr noundef nonnull @dissect_kcs, i32 noundef %21)
  %23 = load i32, ptr @proto_tmode, align 4
  %24 = tail call ptr @register_dissector(ptr noundef nonnull @.str.109, ptr noundef nonnull @dissect_tmode, i32 noundef %23)
  %25 = load i32, ptr @proto_ipmi, align 4
  %26 = tail call ptr @prefs_register_protocol(i32 noundef %25, ptr noundef null)
  tail call void @prefs_register_bool_preference(ptr noundef %26, ptr noundef nonnull @.str.121, ptr noundef nonnull @.str.122, ptr noundef nonnull @.str.123, ptr noundef nonnull @dissect_bus_commands)
  tail call void @prefs_register_bool_preference(ptr noundef %26, ptr noundef nonnull @.str.124, ptr noundef nonnull @.str.125, ptr noundef nonnull @.str.126, ptr noundef nonnull @fru_langcode_is_english)
  tail call void @prefs_register_uint_preference(ptr noundef %26, ptr noundef nonnull @.str.127, ptr noundef nonnull @.str.128, ptr noundef nonnull @.str.129, i32 noundef 10, ptr noundef nonnull @response_after_req)
  tail call void @prefs_register_uint_preference(ptr noundef %26, ptr noundef nonnull @.str.130, ptr noundef nonnull @.str.131, ptr noundef nonnull @.str.132, i32 noundef 10, ptr noundef nonnull @response_before_req)
  tail call void @prefs_register_enum_preference(ptr noundef %26, ptr noundef nonnull @.str.133, ptr noundef nonnull @.str.134, ptr noundef nonnull @.str.135, ptr noundef nonnull @message_format, ptr noundef nonnull @proto_register_ipmi.msgfmt_vals, i1 noundef zeroext false)
  tail call void @prefs_register_enum_preference(ptr noundef %26, ptr noundef nonnull @.str.136, ptr noundef nonnull @.str.137, ptr noundef nonnull @.str.138, ptr noundef nonnull @selected_oem, ptr noundef nonnull @proto_register_ipmi.oemsel_vals, i1 noundef zeroext false)
  ret void
}